target datalayout = "e-m:e-p270:32:32-p271:32:32-p272:64:64-i64:64-i128:128-f80:128-n8:16:32:64-S128"
target triple = "x86_64-pc-linux-gnu"

%class.LogTagSet = type { ptr, i64, [5 x i32], [4 x i8], %class.LogOutputList, %class.LogDecorators, ptr }
%class.LogOutputList = type <{ [6 x ptr], i32, [4 x i8] }>
%class.LogDecorators = type { i32 }
%class.XMarkStackSpace = type { %class.XLock, i64, i64, i64 }
%class.XLock = type { %class.PlatformMutex }
%class.PlatformMutex = type { %union.pthread_mutex_t }
%union.pthread_mutex_t = type { %struct.__pthread_mutex_s }
%struct.__pthread_mutex_s = type { i32, i32, i32, i32, i32, i16, i16, %struct.__pthread_internal_list }
%struct.__pthread_internal_list = type { ptr, ptr }
%class.XMarkStackAllocator = type { %class.XStackList, [56 x i8], %class.XMarkStackSpace }
%class.XStackList = type { ptr }

@XMarkStackSpaceStart = hidden global i64 0, align 8
@.str.8 = private unnamed_addr constant [39 x i8] c"Shrinking mark stack space: %luM->%luM\00", align 1
@_ZN16LogTagSetMappingILN6LogTag4typeE49ELS1_80ELS1_0ELS1_0ELS1_0ELS1_0EE7_tagsetE = linkonce_odr hidden global %class.LogTagSet zeroinitializer, comdat, align 8

; Function Attrs: mustprogress nounwind uwtable
define linkonce_odr hidden noundef zeroext i1 @_ZNK13LogOutputList8is_levelEN8LogLevel4typeE(ptr noundef nonnull align 8 dereferenceable(52) %0, i32 noundef %1) #1 comdat align 2 {
  %3 = alloca ptr, align 8
  %4 = alloca i32, align 4
  store ptr %0, ptr %3, align 8
  store i32 %1, ptr %4, align 4
  %5 = load ptr, ptr %3, align 8
  %6 = getelementptr inbounds %class.LogOutputList, ptr %5, i32 0, i32 0
  %7 = load i32, ptr %4, align 4
  %8 = zext i32 %7 to i64
  %9 = getelementptr inbounds [6 x ptr], ptr %6, i64 0, i64 %8
  %10 = load volatile ptr, ptr %9, align 8
  %11 = icmp ne ptr %10, null
  ret i1 %11
}

; Function Attrs: mustprogress nounwind uwtable
define linkonce_odr hidden noundef zeroext i1 @_ZNK9LogTagSet8is_levelEN8LogLevel4typeE(ptr noundef nonnull align 8 dereferenceable(112) %0, i32 noundef %1) #1 comdat align 2 {
  %3 = alloca ptr, align 8
  %4 = alloca i32, align 4
  store ptr %0, ptr %3, align 8
  store i32 %1, ptr %4, align 4
  %5 = load ptr, ptr %3, align 8
  %6 = getelementptr inbounds %class.LogTagSet, ptr %5, i32 0, i32 4
  %7 = load i32, ptr %4, align 4
  %8 = call noundef zeroext i1 @_ZNK13LogOutputList8is_levelEN8LogLevel4typeE(ptr noundef nonnull align 8 dereferenceable(52) %6, i32 noundef %7)
  ret i1 %8
}

; Function Attrs: mustprogress nounwind uwtable
define linkonce_odr hidden noundef nonnull align 8 dereferenceable(112) ptr @_ZN16LogTagSetMappingILN6LogTag4typeE49ELS1_80ELS1_0ELS1_0ELS1_0ELS1_0EE6tagsetEv() #1 comdat align 2 {
  ret ptr @_ZN16LogTagSetMappingILN6LogTag4typeE49ELS1_80ELS1_0ELS1_0ELS1_0ELS1_0EE7_tagsetE
}

; Function Attrs: mustprogress nounwind uwtable
define linkonce_odr hidden noundef i64 @_Z10align_downImmTnNSt9enable_ifIXcvbsr3std11is_integralIT_EE5valueEiE4typeELi0EES1_S1_T0_(i64 noundef %0, i64 noundef %1) #1 comdat {
  %3 = alloca i64, align 8
  %4 = alloca i64, align 8
  %5 = alloca i64, align 8
  store i64 %0, ptr %3, align 8
  store i64 %1, ptr %4, align 8
  %6 = load i64, ptr %3, align 8
  %7 = load i64, ptr %4, align 8
  %8 = call noundef i64 @_ZL14alignment_maskImTnNSt9enable_ifIXcvbsr3std11is_integralIT_EE5valueEiE4typeELi0EES1_S1_(i64 noundef %7)
  %9 = xor i64 %8, -1
  %10 = and i64 %6, %9
  store i64 %10, ptr %5, align 8
  %11 = load i64, ptr %5, align 8
  ret i64 %11
}

; Function Attrs: mustprogress nounwind uwtable
define linkonce_odr hidden noundef i64 @_Z12checked_castImmET_T0_(i64 noundef %0) #1 comdat {
  %2 = alloca i64, align 8
  %3 = alloca i64, align 8
  store i64 %0, ptr %2, align 8
  %4 = load i64, ptr %2, align 8
  store i64 %4, ptr %3, align 8
  %5 = load i64, ptr %3, align 8
  ret i64 %5
}

; Function Attrs: mustprogress nounwind uwtable
define internal noundef i64 @_ZL14alignment_maskImTnNSt9enable_ifIXcvbsr3std11is_integralIT_EE5valueEiE4typeELi0EES1_S1_(i64 noundef %0) #1 {
  %2 = alloca i64, align 8
  store i64 %0, ptr %2, align 8
  %3 = load i64, ptr %2, align 8
  %4 = sub i64 %3, 1
  ret i64 %4
}

; Function Attrs: mustprogress nounwind uwtable
define linkonce_odr hidden noundef zeroext i1 @_ZN7LogImplILN6LogTag4typeE49ELS1_80ELS1_0ELS1_0ELS1_0ELS1_0EE8is_levelEN8LogLevel4typeE(i32 noundef %0) #1 comdat align 2 {
  %2 = alloca i32, align 4
  store i32 %0, ptr %2, align 4
  %3 = call noundef nonnull align 8 dereferenceable(112) ptr @_ZN16LogTagSetMappingILN6LogTag4typeE49ELS1_80ELS1_0ELS1_0ELS1_0ELS1_0EE6tagsetEv()
  %4 = load i32, ptr %2, align 4
  %5 = call noundef zeroext i1 @_ZNK9LogTagSet8is_levelEN8LogLevel4typeE(ptr noundef nonnull align 8 dereferenceable(112) %3, i32 noundef %4)
  ret i1 %5
}

; Function Attrs: mustprogress nounwind uwtable
define linkonce_odr hidden noundef i64 @_Z8align_upImmTnNSt9enable_ifIXcvbsr3std11is_integralIT_EE5valueEiE4typeELi0EES1_S1_T0_(i64 noundef %0, i64 noundef %1) #1 comdat {
  %3 = alloca i64, align 8
  %4 = alloca i64, align 8
  %5 = alloca i64, align 8
  store i64 %0, ptr %3, align 8
  store i64 %1, ptr %4, align 8
  %6 = load i64, ptr %3, align 8
  %7 = load i64, ptr %4, align 8
  %8 = call noundef i64 @_ZL14alignment_maskImTnNSt9enable_ifIXcvbsr3std11is_integralIT_EE5valueEiE4typeELi0EES1_S1_(i64 noundef %7)
  %9 = add i64 %6, %8
  %10 = call noundef i64 @_Z12checked_castImmET_T0_(i64 noundef %9)
  store i64 %10, ptr %5, align 8
  %11 = load i64, ptr %5, align 8
  %12 = load i64, ptr %4, align 8
  %13 = call noundef i64 @_Z10align_downImmTnNSt9enable_ifIXcvbsr3std11is_integralIT_EE5valueEiE4typeELi0EES1_S1_T0_(i64 noundef %11, i64 noundef %12)
  ret i64 %13
}

; Function Attrs: mustprogress nounwind uwtable
define hidden noundef i64 @_ZNK15XMarkStackSpace4usedEv(ptr noundef nonnull align 8 dereferenceable(64) %0) #1 align 2 {
  %2 = alloca ptr, align 8
  store ptr %0, ptr %2, align 8
  %3 = load ptr, ptr %2, align 8
  %4 = getelementptr inbounds %class.XMarkStackSpace, ptr %3, i32 0, i32 2
  %5 = load volatile i64, ptr %4, align 8
  %6 = getelementptr inbounds %class.XMarkStackSpace, ptr %3, i32 0, i32 1
  %7 = load i64, ptr %6, align 8
  %8 = sub i64 %5, %7
  ret i64 %8
}

; Function Attrs: mustprogress nounwind uwtable
define hidden noundef i64 @_ZNK15XMarkStackSpace4sizeEv(ptr noundef nonnull align 8 dereferenceable(64) %0) #1 align 2 {
  %2 = alloca ptr, align 8
  store ptr %0, ptr %2, align 8
  %3 = load ptr, ptr %2, align 8
  %4 = getelementptr inbounds %class.XMarkStackSpace, ptr %3, i32 0, i32 3
  %5 = load volatile i64, ptr %4, align 8
  %6 = getelementptr inbounds %class.XMarkStackSpace, ptr %3, i32 0, i32 1
  %7 = load i64, ptr %6, align 8
  %8 = sub i64 %5, %7
  ret i64 %8
}

; Function Attrs: mustprogress nounwind uwtable
define hidden noundef i64 @_ZN15XMarkStackSpace12shrink_spaceEv(ptr noundef nonnull align 8 dereferenceable(64) %0) #1 align 2 {
  %2 = alloca ptr, align 8
  %3 = alloca i64, align 8
  %4 = alloca i64, align 8
  %5 = alloca i64, align 8
  %6 = alloca i64, align 8
  store ptr %0, ptr %2, align 8
  %7 = load ptr, ptr %2, align 8
  %8 = call noundef i64 @_ZNK15XMarkStackSpace4sizeEv(ptr noundef nonnull align 8 dereferenceable(64) %7)
  store i64 %8, ptr %3, align 8
  %9 = call noundef i64 @_ZNK15XMarkStackSpace4usedEv(ptr noundef nonnull align 8 dereferenceable(64) %7)
  %10 = call noundef i64 @_Z8align_upImmTnNSt9enable_ifIXcvbsr3std11is_integralIT_EE5valueEiE4typeELi0EES1_S1_T0_(i64 noundef %9, i64 noundef 33554432)
  store i64 %10, ptr %4, align 8
  %11 = load i64, ptr %3, align 8
  %12 = load i64, ptr %4, align 8
  %13 = sub i64 %11, %12
  store i64 %13, ptr %5, align 8
  %14 = load i64, ptr %5, align 8
  %15 = icmp ugt i64 %14, 0
  br i1 %15, label %16, label %33

16:                                               ; preds = %1
  %17 = call noundef zeroext i1 @_ZN7LogImplILN6LogTag4typeE49ELS1_80ELS1_0ELS1_0ELS1_0ELS1_0EE8is_levelEN8LogLevel4typeE(i32 noundef 2)
  br i1 %17, label %19, label %18

18:                                               ; preds = %16
  br label %24

19:                                               ; preds = %16
  %20 = load i64, ptr %3, align 8
  %21 = udiv i64 %20, 1048576
  %22 = load i64, ptr %4, align 8
  %23 = udiv i64 %22, 1048576
  call void (ptr, ...) @_ZN7LogImplILN6LogTag4typeE49ELS1_80ELS1_0ELS1_0ELS1_0ELS1_0EE5writeILN8LogLevel4typeE2EEEvPKcz(ptr noundef @.str.8, i64 noundef %21, i64 noundef %23)
  br label %24

24:                                               ; preds = %19, %18
  %25 = getelementptr inbounds %class.XMarkStackSpace, ptr %7, i32 0, i32 3
  %26 = load volatile i64, ptr %25, align 8
  %27 = load i64, ptr %5, align 8
  %28 = sub i64 %26, %27
  store i64 %28, ptr %6, align 8
  %29 = load i64, ptr %6, align 8
  %30 = inttoptr i64 %29 to ptr
  %31 = load i64, ptr %5, align 8
  %32 = call noundef zeroext i1 @_ZN2os15uncommit_memoryEPcmb(ptr noundef %30, i64 noundef %31, i1 noundef zeroext false)
  br label %33

33:                                               ; preds = %24, %1
  %34 = load i64, ptr %5, align 8
  ret i64 %34
}

; Function Attrs: mustprogress nounwind uwtable
define linkonce_odr hidden noundef ptr @_ZNK10XStackListI6XStackIPS0_I15XMarkStackEntryLm254EELm15EEE24encode_versioned_pointerEPKS4_j(ptr noundef nonnull align 8 dereferenceable(8) %0, ptr noundef %1, i32 noundef %2) #1 comdat align 2 {
  %4 = alloca ptr, align 8
  %5 = alloca ptr, align 8
  %6 = alloca i32, align 4
  %7 = alloca i64, align 8
  store ptr %0, ptr %4, align 8
  store ptr %1, ptr %5, align 8
  store i32 %2, ptr %6, align 4
  %8 = load ptr, ptr %5, align 8
  %9 = icmp eq ptr %8, null
  br i1 %9, label %10, label %11

10:                                               ; preds = %3
  store i64 4294967295, ptr %7, align 8
  br label %17

11:                                               ; preds = %3
  %12 = load ptr, ptr %5, align 8
  %13 = ptrtoint ptr %12 to i64
  %14 = load i64, ptr @XMarkStackSpaceStart, align 8
  %15 = sub i64 %13, %14
  %16 = lshr i64 %15, 11
  store i64 %16, ptr %7, align 8
  br label %17

17:                                               ; preds = %11, %10
  %18 = load i64, ptr %7, align 8
  %19 = shl i64 %18, 32
  %20 = load i32, ptr %6, align 4
  %21 = zext i32 %20 to i64
  %22 = or i64 %19, %21
  %23 = inttoptr i64 %22 to ptr
  ret ptr %23
}

; Function Attrs: mustprogress nounwind uwtable
define hidden void @_ZN15XMarkStackSpace4freeEv(ptr noundef nonnull align 8 dereferenceable(64) %0) #1 align 2 {
  %2 = alloca ptr, align 8
  store ptr %0, ptr %2, align 8
  %3 = load ptr, ptr %2, align 8
  %4 = call noundef i64 @_ZN15XMarkStackSpace12shrink_spaceEv(ptr noundef nonnull align 8 dereferenceable(64) %3)
  %5 = getelementptr inbounds %class.XMarkStackSpace, ptr %3, i32 0, i32 3
  %6 = load volatile i64, ptr %5, align 8
  %7 = sub i64 %6, %4
  store volatile i64 %7, ptr %5, align 8
  %8 = getelementptr inbounds %class.XMarkStackSpace, ptr %3, i32 0, i32 1
  %9 = load i64, ptr %8, align 8
  %10 = getelementptr inbounds %class.XMarkStackSpace, ptr %3, i32 0, i32 2
  store volatile i64 %9, ptr %10, align 8
  ret void
}

; Function Attrs: mustprogress nounwind uwtable
define linkonce_odr hidden void @_ZN10XStackListI6XStackIPS0_I15XMarkStackEntryLm254EELm15EEE5clearEv(ptr noundef nonnull align 8 dereferenceable(8) %0) #1 comdat align 2 {
  %2 = alloca ptr, align 8
  store ptr %0, ptr %2, align 8
  %3 = load ptr, ptr %2, align 8
  %4 = call noundef ptr @_ZNK10XStackListI6XStackIPS0_I15XMarkStackEntryLm254EELm15EEE24encode_versioned_pointerEPKS4_j(ptr noundef nonnull align 8 dereferenceable(8) %3, ptr noundef null, i32 noundef 0)
  %5 = getelementptr inbounds %class.XStackList, ptr %3, i32 0, i32 0
  store volatile ptr %4, ptr %5, align 8
  ret void
}

; Function Attrs: mustprogress nounwind uwtable
define hidden void @_ZN19XMarkStackAllocator4freeEv(ptr noundef nonnull align 64 dereferenceable(128) %0) #1 align 2 {
  %2 = alloca ptr, align 8
  store ptr %0, ptr %2, align 8
  %3 = load ptr, ptr %2, align 8
  %4 = getelementptr inbounds %class.XMarkStackAllocator, ptr %3, i32 0, i32 0
  call void @_ZN10XStackListI6XStackIPS0_I15XMarkStackEntryLm254EELm15EEE5clearEv(ptr noundef nonnull align 8 dereferenceable(8) %4)
  %5 = getelementptr inbounds %class.XMarkStackAllocator, ptr %3, i32 0, i32 2
  call void @_ZN15XMarkStackSpace4freeEv(ptr noundef nonnull align 8 dereferenceable(64) %5)
  ret void
}