; Function Attrs: mustprogress nounwind uwtable
define hidden void @_ZN19XMarkStackAllocator4freeEv(ptr noundef nonnull align 64 dereferenceable(128) %0) local_unnamed_addr #0 align 2 {
  store volatile ptr inttoptr (i64 -4294967296 to ptr), ptr %0, align 64
  %2 = getelementptr inbounds i8, ptr %0, i64 120
  %3 = load volatile i64, ptr %2, align 8
  %4 = getelementptr inbounds i8, ptr %0, i64 104
  %5 = load i64, ptr %4, align 8
  %6 = sub i64 %3, %5
  %7 = getelementptr inbounds i8, ptr %0, i64 112
  %8 = load volatile i64, ptr %7, align 16
  %9 = xor i64 %5, -1
  %10 = add i64 %8, %9
  %11 = and i64 %10, -33554432
  %12 = add i64 %11, 33554432
  %13 = sub i64 %6, %12
  %.not.i.i = icmp eq i64 %6, %12
  br i1 %.not.i.i, label %_ZN15XMarkStackSpace4freeEv.exit, label %14

14:                                               ; preds = %1
  %15 = load volatile ptr, ptr getelementptr inbounds (i8, ptr @_ZN16LogTagSetMappingILN6LogTag4typeE49ELS1_80ELS1_0ELS1_0ELS1_0ELS1_0EE7_tagsetE, i64 56), align 8
  %.not9.i.i = icmp eq ptr %15, null
  br i1 %.not9.i.i, label %19, label %16

16:                                               ; preds = %14
  %17 = lshr i64 %6, 20
  %18 = lshr exact i64 %12, 20
  tail call void (ptr, ...) @_ZN7LogImplILN6LogTag4typeE49ELS1_80ELS1_0ELS1_0ELS1_0ELS1_0EE5writeILN8LogLevel4typeE2EEEvPKcz(ptr noundef nonnull @.str.8, i64 noundef %17, i64 noundef %18)
  br label %19

19:                                               ; preds = %16, %14
  %20 = load volatile i64, ptr %2, align 8
  %21 = sub i64 %20, %13
  %22 = inttoptr i64 %21 to ptr
  %23 = tail call noundef zeroext i1 @_ZN2os15uncommit_memoryEPcmb(ptr noundef %22, i64 noundef %13, i1 noundef zeroext false) #10
  %.pre.i = load i64, ptr %4, align 8
  br label %_ZN15XMarkStackSpace4freeEv.exit

_ZN15XMarkStackSpace4freeEv.exit:                 ; preds = %1, %19
  %24 = phi i64 [ %5, %1 ], [ %.pre.i, %19 ]
  %25 = load volatile i64, ptr %2, align 8
  %26 = sub i64 %25, %13
  store volatile i64 %26, ptr %2, align 8
  store volatile i64 %24, ptr %7, align 16
  ret void
}